target datalayout = "e-m:e-p270:32:32-p271:32:32-p272:64:64-i64:64-i128:128-f80:128-n8:16:32:64-S128"
target triple = "x86_64-unknown-linux-gnu"

%"class.std::__shared_count" = type { ptr }
%"class.std::shared_ptr.38" = type { %"class.std::__shared_ptr.39" }
%"class.std::__shared_ptr.39" = type { ptr, %"class.std::__shared_count" }
%"struct.arrow::TypeHolder" = type { ptr, %"class.std::shared_ptr.38" }
%"class.arrow::compute::CastOptions" = type <{ %"class.arrow::compute::FunctionOptions", %"struct.arrow::TypeHolder", i8, i8, i8, i8, i8, i8, [2 x i8] }>
%"class.arrow::compute::FunctionOptions" = type { ptr, ptr }

; Function Attrs: mustprogress nounwind uwtable
define noundef zeroext i1 @_ZNK5arrow7compute11CastOptions7is_safeEv(ptr noundef nonnull align 8 dereferenceable(46) %this) #1 align 2 {
entry:
  %this.addr = alloca ptr, align 8
  store ptr %this, ptr %this.addr, align 8
  %this1 = load ptr, ptr %this.addr, align 8
  %allow_int_overflow = getelementptr inbounds %"class.arrow::compute::CastOptions", ptr %this1, i32 0, i32 2
  %0 = load i8, ptr %allow_int_overflow, align 8
  %tobool = trunc i8 %0 to i1
  br i1 %tobool, label %land.end, label %land.lhs.true

land.lhs.true:                                    ; preds = %entry
  %allow_time_truncate = getelementptr inbounds %"class.arrow::compute::CastOptions", ptr %this1, i32 0, i32 3
  %1 = load i8, ptr %allow_time_truncate, align 1
  %tobool2 = trunc i8 %1 to i1
  br i1 %tobool2, label %land.end, label %land.lhs.true3

land.lhs.true3:                                   ; preds = %land.lhs.true
  %allow_time_overflow = getelementptr inbounds %"class.arrow::compute::CastOptions", ptr %this1, i32 0, i32 4
  %2 = load i8, ptr %allow_time_overflow, align 2
  %tobool4 = trunc i8 %2 to i1
  br i1 %tobool4, label %land.end, label %land.lhs.true5

land.lhs.true5:                                   ; preds = %land.lhs.true3
  %allow_decimal_truncate = getelementptr inbounds %"class.arrow::compute::CastOptions", ptr %this1, i32 0, i32 5
  %3 = load i8, ptr %allow_decimal_truncate, align 1
  %tobool6 = trunc i8 %3 to i1
  br i1 %tobool6, label %land.end, label %land.lhs.true7

land.lhs.true7:                                   ; preds = %land.lhs.true5
  %allow_float_truncate = getelementptr inbounds %"class.arrow::compute::CastOptions", ptr %this1, i32 0, i32 6
  %4 = load i8, ptr %allow_float_truncate, align 4
  %tobool8 = trunc i8 %4 to i1
  br i1 %tobool8, label %land.end, label %land.rhs

land.rhs:                                         ; preds = %land.lhs.true7
  %allow_invalid_utf8 = getelementptr inbounds %"class.arrow::compute::CastOptions", ptr %this1, i32 0, i32 7
  %5 = load i8, ptr %allow_invalid_utf8, align 1
  %tobool9 = trunc i8 %5 to i1
  %lnot = xor i1 %tobool9, true
  br label %land.end

land.end:                                         ; preds = %land.rhs, %land.lhs.true7, %land.lhs.true5, %land.lhs.true3, %land.lhs.true, %entry
  %6 = phi i1 [ false, %land.lhs.true7 ], [ false, %land.lhs.true5 ], [ false, %land.lhs.true3 ], [ false, %land.lhs.true ], [ false, %entry ], [ %lnot, %land.rhs ]
  ret i1 %6
}